; Function Attrs: inlinehint mustprogress nounwind uwtable
define internal void @"_ZZZ21test_submodule_class_RN8pybind117module_EENK4$_18clEvENUlPvE_8__invokeES3_"(ptr noundef %0) #0 align 2 {
  %2 = icmp eq ptr %0, null
  br i1 %2, label %"_ZZZ21test_submodule_class_RN8pybind117module_EENK4$_18clEvENKUlPvE_clES3_.exit", label %3

3:                                                ; preds = %1
  tail call void @_ZdlPvm(ptr noundef nonnull %0, i64 noundef 32) #38
  br label %"_ZZZ21test_submodule_class_RN8pybind117module_EENK4$_18clEvENKUlPvE_clES3_.exit"

"_ZZZ21test_submodule_class_RN8pybind117module_EENK4$_18clEvENKUlPvE_clES3_.exit": ; preds = %1, %3
  ret void
}